; Function Attrs: mustprogress uwtable
define range(i32 -1, 1) i32 @LGBM_BoosterGetFeatureNames(ptr noundef nonnull %0, i32 noundef %1, ptr noundef writeonly captures(none) %2, i64 noundef %3, ptr noundef %4, ptr noundef %5) local_unnamed_addr #5 personality ptr @__gxx_personality_v0 {
  %7 = alloca %"class.std::__cxx11::basic_string", align 8
  %8 = alloca %"class.std::allocator", align 1
  %9 = invoke noundef i32 @_ZNK8LightGBM7Booster15GetFeatureNamesEPPcimPm(ptr noundef nonnull align 8 dereferenceable(1824) %0, ptr noundef %5, i32 noundef %1, i64 noundef %3, ptr noundef %4)
          to label %10 unwind label %11

10:                                               ; preds = %6
  store i32 %9, ptr %2, align 4, !tbaa !52
  br label %46

11:                                               ; preds = %6
  %12 = landingpad { ptr, i32 }
          catch ptr @_ZTISt9exception
          catch ptr @_ZTINSt7__cxx1112basic_stringIcSt11char_traitsIcESaIcEEE
          catch ptr null
  %13 = extractvalue { ptr, i32 } %12, 0
  %14 = extractvalue { ptr, i32 } %12, 1
  %15 = tail call i32 @llvm.eh.typeid.for.p0(ptr nonnull @_ZTISt9exception) #26
  %16 = icmp eq i32 %14, %15
  br i1 %16, label %17, label %25

17:                                               ; preds = %11
  %18 = tail call ptr @__cxa_begin_catch(ptr %13) #26
  %19 = load ptr, ptr %18, align 8, !tbaa !14
  %20 = getelementptr inbounds nuw i8, ptr %19, i64 16
  %21 = load ptr, ptr %20, align 8
  %22 = tail call noundef ptr %21(ptr noundef nonnull align 8 dereferenceable(8) %18) #26
  %23 = tail call noundef nonnull align 16 ptr @llvm.threadlocal.address.p0(ptr align 16 @_ZZL12LastErrorMsgvE7err_msg)
  %24 = tail call i32 (ptr, i64, ptr, ...) @snprintf(ptr noundef nonnull dereferenceable(1) %23, i64 noundef 512, ptr noundef nonnull @.str.1, ptr noundef %22) #26
  tail call void @__cxa_end_catch()
  br label %46

25:                                               ; preds = %11
  %26 = tail call i32 @llvm.eh.typeid.for.p0(ptr nonnull @_ZTINSt7__cxx1112basic_stringIcSt11char_traitsIcESaIcEEE) #26
  %27 = icmp eq i32 %14, %26
  %28 = tail call ptr @__cxa_begin_catch(ptr %13) #26
  br i1 %27, label %29, label %33

29:                                               ; preds = %25
  %30 = load ptr, ptr %28, align 8, !tbaa !13
  %31 = tail call noundef nonnull align 16 ptr @llvm.threadlocal.address.p0(ptr align 16 @_ZZL12LastErrorMsgvE7err_msg)
  %32 = tail call i32 (ptr, i64, ptr, ...) @snprintf(ptr noundef nonnull dereferenceable(1) %31, i64 noundef 512, ptr noundef nonnull @.str.1, ptr noundef %30) #26
  tail call void @__cxa_end_catch()
  br label %46

33:                                               ; preds = %25
  call void @llvm.lifetime.start.p0(i64 32, ptr nonnull %7) #26
  call void @llvm.lifetime.start.p0(i64 1, ptr nonnull %8) #26
  invoke void @_ZNSt7__cxx1112basic_stringIcSt11char_traitsIcESaIcEEC2EPKcRKS3_(ptr noundef nonnull align 8 dereferenceable(32) %7, ptr noundef nonnull @.str, ptr noundef nonnull align 1 dereferenceable(1) %8)
          to label %34 unwind label %44

34:                                               ; preds = %33
  %35 = load ptr, ptr %7, align 8, !tbaa !13
  %36 = call noundef nonnull align 16 ptr @llvm.threadlocal.address.p0(ptr align 16 @_ZZL12LastErrorMsgvE7err_msg)
  %37 = call i32 (ptr, i64, ptr, ...) @snprintf(ptr noundef nonnull dereferenceable(1) %36, i64 noundef 512, ptr noundef nonnull @.str.1, ptr noundef %35) #26
  %38 = load ptr, ptr %7, align 8, !tbaa !13
  %39 = getelementptr inbounds nuw i8, ptr %7, i64 16
  %40 = icmp eq ptr %38, %39
  br i1 %40, label %_ZNKSt7__cxx1112basic_stringIcSt11char_traitsIcESaIcEE11_M_is_localEv.exit.thread.i.i, label %_ZNKSt7__cxx1112basic_stringIcSt11char_traitsIcESaIcEE11_M_is_localEv.exit.i.i

_ZNKSt7__cxx1112basic_stringIcSt11char_traitsIcESaIcEE11_M_is_localEv.exit.thread.i.i: ; preds = %34
  %41 = getelementptr inbounds nuw i8, ptr %7, i64 8
  %42 = load i64, ptr %41, align 8, !tbaa !4
  %43 = icmp ult i64 %42, 16
  call void @llvm.assume(i1 %43)
  br label %_ZNSt7__cxx1112basic_stringIcSt11char_traitsIcESaIcEED2Ev.exit

_ZNKSt7__cxx1112basic_stringIcSt11char_traitsIcESaIcEE11_M_is_localEv.exit.i.i: ; preds = %34
  call void @_ZdlPv(ptr noundef %38) #39
  br label %_ZNSt7__cxx1112basic_stringIcSt11char_traitsIcESaIcEED2Ev.exit

_ZNSt7__cxx1112basic_stringIcSt11char_traitsIcESaIcEED2Ev.exit: ; preds = %_ZNKSt7__cxx1112basic_stringIcSt11char_traitsIcESaIcEE11_M_is_localEv.exit.thread.i.i, %_ZNKSt7__cxx1112basic_stringIcSt11char_traitsIcESaIcEE11_M_is_localEv.exit.i.i
  call void @llvm.lifetime.end.p0(i64 1, ptr nonnull %8) #26
  call void @llvm.lifetime.end.p0(i64 32, ptr nonnull %7) #26
  call void @__cxa_end_catch()
  br label %46

44:                                               ; preds = %33
  %45 = landingpad { ptr, i32 }
          cleanup
  call void @llvm.lifetime.end.p0(i64 1, ptr nonnull %8) #26
  call void @llvm.lifetime.end.p0(i64 32, ptr nonnull %7) #26
  invoke void @__cxa_end_catch()
          to label %47 unwind label %48

46:                                               ; preds = %10, %_ZNSt7__cxx1112basic_stringIcSt11char_traitsIcESaIcEED2Ev.exit, %29, %17
  %.0 = phi i32 [ 0, %10 ], [ -1, %17 ], [ -1, %29 ], [ -1, %_ZNSt7__cxx1112basic_stringIcSt11char_traitsIcESaIcEED2Ev.exit ]
  ret i32 %.0

47:                                               ; preds = %44
  resume { ptr, i32 } %45

48:                                               ; preds = %44
  %49 = landingpad { ptr, i32 }
          catch ptr null
  %50 = extractvalue { ptr, i32 } %49, 0
  call void @__clang_call_terminate(ptr %50) #40
  unreachable
}